; Function Attrs: nounwind uwtable
define internal ptr @complex_conjugate(ptr noundef readonly captures(none) %0, ptr readnone captures(none) %1) #9 {
  %3 = getelementptr i8, ptr %0, i64 16
  %.val = load double, ptr %3, align 8, !tbaa !13
  %4 = getelementptr i8, ptr %0, i64 24
  %.val1 = load double, ptr %4, align 8, !tbaa !13
  %5 = fneg double %.val1
  %6 = tail call ptr @PyObject_Malloc(i64 noundef 32) #16
  %7 = icmp eq ptr %6, null
  br i1 %7, label %8, label %10

8:                                                ; preds = %2
  %9 = tail call ptr @PyErr_NoMemory() #16
  br label %complex_conjugate_impl.exit

10:                                               ; preds = %2
  %11 = getelementptr inbounds nuw i8, ptr %6, i64 8
  store ptr @PyComplex_Type, ptr %11, align 8, !tbaa !8
  %12 = load i32, ptr @PyComplex_Type, align 8, !tbaa !12
  %13 = icmp slt i32 %12, 0
  br i1 %13, label %_PyObject_Init.exit.i.i, label %14

14:                                               ; preds = %10
  %15 = add nuw i32 %12, 1
  store i32 %15, ptr @PyComplex_Type, align 8, !tbaa !12
  br label %_PyObject_Init.exit.i.i

_PyObject_Init.exit.i.i:                          ; preds = %14, %10
  tail call void @_Py_NewReference(ptr noundef nonnull %6) #16
  %16 = getelementptr inbounds nuw i8, ptr %6, i64 16
  store double %.val, ptr %16, align 8, !tbaa !13
  %.sroa.2.0..sroa_idx.i.i = getelementptr inbounds nuw i8, ptr %6, i64 24
  store double %5, ptr %.sroa.2.0..sroa_idx.i.i, align 8, !tbaa !13
  br label %complex_conjugate_impl.exit

complex_conjugate_impl.exit:                      ; preds = %8, %_PyObject_Init.exit.i.i
  %.0.i.i = phi ptr [ %9, %8 ], [ %6, %_PyObject_Init.exit.i.i ]
  ret ptr %.0.i.i
}